; Function Attrs: mustprogress nounwind uwtable
define void @_ZN32pxrInternal_v0_24__pxrReserved__35HdLightSchemaTokens_StaticTokenTypeD2Ev(ptr nocapture noundef nonnull readonly align 8 dereferenceable(32) %0) unnamed_addr #0 align 2 personality ptr @__gxx_personality_v0 {
  %2 = getelementptr inbounds nuw i8, ptr %0, i64 8
  %3 = load ptr, ptr %2, align 8
  %4 = getelementptr inbounds i8, ptr %0, i64 16
  %5 = load ptr, ptr %4, align 8
  %.not4.i.i.i.i = icmp eq ptr %3, %5
  br i1 %.not4.i.i.i.i, label %_ZSt8_DestroyIPN32pxrInternal_v0_24__pxrReserved__7TfTokenES1_EvT_S3_RSaIT0_E.exit.i, label %.lr.ph.i.i.i.i

.lr.ph.i.i.i.i:                                   ; preds = %1, %_ZSt8_DestroyIN32pxrInternal_v0_24__pxrReserved__7TfTokenEEvPT_.exit.i.i.i.i
  %.05.i.i.i.i = phi ptr [ %13, %_ZSt8_DestroyIN32pxrInternal_v0_24__pxrReserved__7TfTokenEEvPT_.exit.i.i.i.i ], [ %3, %1 ]
  %6 = load ptr, ptr %.05.i.i.i.i, align 8
  %7 = ptrtoint ptr %6 to i64
  %8 = and i64 %7, 7
  %.not.i.i.i.i.i.i.i = icmp eq i64 %8, 0
  br i1 %.not.i.i.i.i.i.i.i, label %_ZSt8_DestroyIN32pxrInternal_v0_24__pxrReserved__7TfTokenEEvPT_.exit.i.i.i.i, label %9

9:                                                ; preds = %.lr.ph.i.i.i.i
  %10 = and i64 %7, -8
  %11 = inttoptr i64 %10 to ptr
  %12 = atomicrmw sub ptr %11, i32 2 release, align 4
  br label %_ZSt8_DestroyIN32pxrInternal_v0_24__pxrReserved__7TfTokenEEvPT_.exit.i.i.i.i

_ZSt8_DestroyIN32pxrInternal_v0_24__pxrReserved__7TfTokenEEvPT_.exit.i.i.i.i: ; preds = %9, %.lr.ph.i.i.i.i
  %13 = getelementptr inbounds i8, ptr %.05.i.i.i.i, i64 8
  %.not.i.i.i.i = icmp eq ptr %13, %5
  br i1 %.not.i.i.i.i, label %_ZSt8_DestroyIPN32pxrInternal_v0_24__pxrReserved__7TfTokenES1_EvT_S3_RSaIT0_E.exitthread-pre-split.i, label %.lr.ph.i.i.i.i, !llvm.loop !4

_ZSt8_DestroyIPN32pxrInternal_v0_24__pxrReserved__7TfTokenES1_EvT_S3_RSaIT0_E.exitthread-pre-split.i: ; preds = %_ZSt8_DestroyIN32pxrInternal_v0_24__pxrReserved__7TfTokenEEvPT_.exit.i.i.i.i
  %.pr.i = load ptr, ptr %2, align 8
  br label %_ZSt8_DestroyIPN32pxrInternal_v0_24__pxrReserved__7TfTokenES1_EvT_S3_RSaIT0_E.exit.i

_ZSt8_DestroyIPN32pxrInternal_v0_24__pxrReserved__7TfTokenES1_EvT_S3_RSaIT0_E.exit.i: ; preds = %_ZSt8_DestroyIPN32pxrInternal_v0_24__pxrReserved__7TfTokenES1_EvT_S3_RSaIT0_E.exitthread-pre-split.i, %1
  %14 = phi ptr [ %.pr.i, %_ZSt8_DestroyIPN32pxrInternal_v0_24__pxrReserved__7TfTokenES1_EvT_S3_RSaIT0_E.exitthread-pre-split.i ], [ %3, %1 ]
  %.not.i.i.i = icmp eq ptr %14, null
  br i1 %.not.i.i.i, label %_ZNSt6vectorIN32pxrInternal_v0_24__pxrReserved__7TfTokenESaIS1_EED2Ev.exit, label %15

15:                                               ; preds = %_ZSt8_DestroyIPN32pxrInternal_v0_24__pxrReserved__7TfTokenES1_EvT_S3_RSaIT0_E.exit.i
  %16 = getelementptr inbounds i8, ptr %0, i64 24
  %17 = load ptr, ptr %16, align 8
  %18 = ptrtoint ptr %17 to i64
  %19 = ptrtoint ptr %14 to i64
  %20 = sub i64 %18, %19
  tail call void @_ZdlPvm(ptr noundef nonnull %14, i64 noundef %20) #9
  br label %_ZNSt6vectorIN32pxrInternal_v0_24__pxrReserved__7TfTokenESaIS1_EED2Ev.exit

_ZNSt6vectorIN32pxrInternal_v0_24__pxrReserved__7TfTokenESaIS1_EED2Ev.exit: ; preds = %_ZSt8_DestroyIPN32pxrInternal_v0_24__pxrReserved__7TfTokenES1_EvT_S3_RSaIT0_E.exit.i, %15
  %21 = load ptr, ptr %0, align 8
  %22 = ptrtoint ptr %21 to i64
  %23 = and i64 %22, 7
  %.not.i.i = icmp eq i64 %23, 0
  br i1 %.not.i.i, label %_ZN32pxrInternal_v0_24__pxrReserved__7TfTokenD2Ev.exit, label %24

24:                                               ; preds = %_ZNSt6vectorIN32pxrInternal_v0_24__pxrReserved__7TfTokenESaIS1_EED2Ev.exit
  %25 = and i64 %22, -8
  %26 = inttoptr i64 %25 to ptr
  %27 = atomicrmw sub ptr %26, i32 2 release, align 4
  br label %_ZN32pxrInternal_v0_24__pxrReserved__7TfTokenD2Ev.exit

_ZN32pxrInternal_v0_24__pxrReserved__7TfTokenD2Ev.exit: ; preds = %_ZNSt6vectorIN32pxrInternal_v0_24__pxrReserved__7TfTokenESaIS1_EED2Ev.exit, %24
  ret void
}